; Function Attrs: nounwind uwtable
define ptr @l_Std_Time_Internal_Bounded_LE_ediv___rarg___boxed(ptr noundef %0, ptr noundef %1, ptr readnone captures(none) %2) #1 {
  %4 = ptrtoint ptr %0 to i64
  %5 = and i64 %4, 1
  %.not.i.i = icmp eq i64 %5, 0
  %.pre12 = ptrtoint ptr %1 to i64
  %.pre = and i64 %.pre12, 1
  %6 = icmp eq i64 %.pre, 0
  br i1 %.not.i.i, label %l_Std_Time_Internal_Bounded_LE_ediv___rarg.exit, label %7, !prof !10

7:                                                ; preds = %3
  br i1 %6, label %l_Std_Time_Internal_Bounded_LE_ediv___rarg.exit.thread16, label %9, !prof !10

l_Std_Time_Internal_Bounded_LE_ediv___rarg.exit.thread16: ; preds = %7
  %8 = tail call ptr @lean_int_big_ediv(ptr noundef %0, ptr noundef %1) #5
  br label %32

9:                                                ; preds = %7
  %10 = lshr i64 %.pre12, 1
  %11 = trunc i64 %10 to i32
  %12 = icmp eq i32 %11, 0
  br i1 %12, label %lean_dec.exit, label %13

13:                                               ; preds = %9
  %sext.i.i = shl i64 %10, 32
  %14 = ashr exact i64 %sext.i.i, 32
  %15 = shl i64 %4, 31
  %16 = ashr i64 %15, 32
  %17 = sdiv i64 %16, %14
  %18 = srem i64 %16, %14
  %19 = icmp slt i64 %18, 0
  %20 = icmp sgt i32 %11, 0
  %.v.i.i = select i1 %20, i64 -1, i64 1
  %21 = select i1 %19, i64 %.v.i.i, i64 0
  %.016.i.i = add nsw i64 %21, %17
  %22 = add nsw i64 %.016.i.i, 2147483648
  %23 = icmp ult i64 %22, 4294967296
  br i1 %23, label %24, label %29, !prof !9

24:                                               ; preds = %13
  %25 = shl nsw i64 %.016.i.i, 1
  %26 = and i64 %25, 8589934590
  %27 = or disjoint i64 %26, 1
  %28 = inttoptr i64 %27 to ptr
  br label %lean_dec.exit

29:                                               ; preds = %13
  %30 = tail call ptr @lean_big_int64_to_int(i64 noundef range(i64 -4611686016279904256, 4611686018427387905) %.016.i.i) #5
  br label %lean_dec.exit

l_Std_Time_Internal_Bounded_LE_ediv___rarg.exit:  ; preds = %3
  %31 = tail call ptr @lean_int_big_ediv(ptr noundef %0, ptr noundef %1) #5
  br i1 %6, label %32, label %lean_dec.exit6.thread

32:                                               ; preds = %l_Std_Time_Internal_Bounded_LE_ediv___rarg.exit.thread16, %l_Std_Time_Internal_Bounded_LE_ediv___rarg.exit
  %33 = phi ptr [ %8, %l_Std_Time_Internal_Bounded_LE_ediv___rarg.exit.thread16 ], [ %31, %l_Std_Time_Internal_Bounded_LE_ediv___rarg.exit ]
  %34 = load i32, ptr %1, align 4, !tbaa !4
  %35 = icmp sgt i32 %34, 1
  br i1 %35, label %36, label %38, !prof !9

36:                                               ; preds = %32
  %37 = add nsw i32 %34, -1
  store i32 %37, ptr %1, align 4, !tbaa !4
  br label %lean_dec.exit6

38:                                               ; preds = %32
  %.not.i = icmp eq i32 %34, 0
  br i1 %.not.i, label %lean_dec.exit6, label %39

39:                                               ; preds = %38
  tail call void @lean_dec_ref_cold(ptr noundef nonnull %1) #5
  br label %lean_dec.exit6

lean_dec.exit6:                                   ; preds = %39, %38, %36
  br i1 %.not.i.i, label %lean_dec.exit6.thread, label %lean_dec.exit

lean_dec.exit6.thread:                            ; preds = %l_Std_Time_Internal_Bounded_LE_ediv___rarg.exit, %lean_dec.exit6
  %.1.i.i1520 = phi ptr [ %33, %lean_dec.exit6 ], [ %31, %l_Std_Time_Internal_Bounded_LE_ediv___rarg.exit ]
  %40 = load i32, ptr %0, align 4, !tbaa !4
  %41 = icmp sgt i32 %40, 1
  br i1 %41, label %42, label %44, !prof !9

42:                                               ; preds = %lean_dec.exit6.thread
  %43 = add nsw i32 %40, -1
  store i32 %43, ptr %0, align 4, !tbaa !4
  br label %lean_dec.exit

44:                                               ; preds = %lean_dec.exit6.thread
  %.not.i7 = icmp eq i32 %40, 0
  br i1 %.not.i7, label %lean_dec.exit, label %45

45:                                               ; preds = %44
  tail call void @lean_dec_ref_cold(ptr noundef nonnull %0) #5
  br label %lean_dec.exit

lean_dec.exit:                                    ; preds = %9, %24, %29, %45, %44, %42, %lean_dec.exit6
  %.1.i.i1519 = phi ptr [ %.1.i.i1520, %45 ], [ %.1.i.i1520, %44 ], [ %.1.i.i1520, %42 ], [ %33, %lean_dec.exit6 ], [ %30, %29 ], [ %28, %24 ], [ inttoptr (i64 1 to ptr), %9 ]
  ret ptr %.1.i.i1519
}